target datalayout = "e-m:e-p270:32:32-p271:32:32-p272:64:64-i64:64-i128:128-f80:128-n8:16:32:64-S128"
target triple = "x86_64-pc-linux-gnu"

%"struct.Luau::Location" = type { %"struct.Luau::Position", %"struct.Luau::Position" }
%"struct.Luau::Position" = type { i32, i32 }

; Function Attrs: mustprogress uwtable
define dso_local noundef zeroext i1 @_ZN4Luau12TypeChecker218isErrorSuppressingENS_8LocationEPKNS_4TypeES1_S4_(ptr noundef nonnull align 8 dereferenceable(784) %0, i64 %1, i64 %2, ptr noundef %3, i64 %4, i64 %5, ptr noundef %6) #7 align 2 {
  %8 = alloca %"struct.Luau::Location", align 4
  %9 = alloca %"struct.Luau::Location", align 4
  %10 = alloca ptr, align 8
  %11 = alloca ptr, align 8
  %12 = alloca ptr, align 8
  %13 = alloca %"struct.Luau::Location", align 4
  %14 = alloca %"struct.Luau::Location", align 4
  %15 = getelementptr inbounds nuw { i64, i64 }, ptr %8, i32 0, i32 0
  store i64 %1, ptr %15, align 4
  %16 = getelementptr inbounds nuw { i64, i64 }, ptr %8, i32 0, i32 1
  store i64 %2, ptr %16, align 4
  %17 = getelementptr inbounds nuw { i64, i64 }, ptr %9, i32 0, i32 0
  store i64 %4, ptr %17, align 4
  %18 = getelementptr inbounds nuw { i64, i64 }, ptr %9, i32 0, i32 1
  store i64 %5, ptr %18, align 4
  store ptr %0, ptr %10, align 8, !tbaa !131
  store ptr %3, ptr %11, align 8, !tbaa !243
  store ptr %6, ptr %12, align 8, !tbaa !243
  %19 = load ptr, ptr %10, align 8
  call void @llvm.memcpy.p0.p0.i64(ptr align 4 %13, ptr align 4 %8, i64 16, i1 false), !tbaa.struct !285
  %20 = load ptr, ptr %11, align 8, !tbaa !243
  %21 = getelementptr inbounds nuw { i64, i64 }, ptr %13, i32 0, i32 0
  %22 = load i64, ptr %21, align 4
  %23 = getelementptr inbounds nuw { i64, i64 }, ptr %13, i32 0, i32 1
  %24 = load i64, ptr %23, align 4
  %25 = call noundef zeroext i1 @_ZN4Luau12TypeChecker218isErrorSuppressingENS_8LocationEPKNS_4TypeE(ptr noundef nonnull align 8 dereferenceable(784) %19, i64 %22, i64 %24, ptr noundef %20)
  br i1 %25, label %33, label %26

26:                                               ; preds = %7
  call void @llvm.memcpy.p0.p0.i64(ptr align 4 %14, ptr align 4 %9, i64 16, i1 false), !tbaa.struct !285
  %27 = load ptr, ptr %12, align 8, !tbaa !243
  %28 = getelementptr inbounds nuw { i64, i64 }, ptr %14, i32 0, i32 0
  %29 = load i64, ptr %28, align 4
  %30 = getelementptr inbounds nuw { i64, i64 }, ptr %14, i32 0, i32 1
  %31 = load i64, ptr %30, align 4
  %32 = call noundef zeroext i1 @_ZN4Luau12TypeChecker218isErrorSuppressingENS_8LocationEPKNS_4TypeE(ptr noundef nonnull align 8 dereferenceable(784) %19, i64 %29, i64 %31, ptr noundef %27)
  br label %33

33:                                               ; preds = %26, %7
  %34 = phi i1 [ true, %7 ], [ %32, %26 ]
  ret i1 %34
}